target datalayout = "e-m:e-p270:32:32-p271:32:32-p272:64:64-i64:64-i128:128-f80:128-n8:16:32:64-S128"
target triple = "x86_64-pc-linux-gnu"

%struct.BlockXY = type { i32, i32, i32, i32, i32, i32, i32, ptr, i32 }

; Function Attrs: alwaysinline nounwind willreturn memory(none) uwtable
define internal i32 @av_clip_c(i32 noundef %0, i32 noundef %1, i32 noundef %2) #9 {
  %4 = alloca i32, align 4
  %5 = alloca i32, align 4
  %6 = alloca i32, align 4
  %7 = alloca i32, align 4
  store i32 %0, ptr %5, align 4, !tbaa !40
  store i32 %1, ptr %6, align 4, !tbaa !40
  store i32 %2, ptr %7, align 4, !tbaa !40
  %8 = load i32, ptr %5, align 4, !tbaa !40
  %9 = load i32, ptr %6, align 4, !tbaa !40
  %10 = icmp slt i32 %8, %9
  br i1 %10, label %11, label %13

11:                                               ; preds = %3
  %12 = load i32, ptr %6, align 4, !tbaa !40
  store i32 %12, ptr %4, align 4
  br label %21

13:                                               ; preds = %3
  %14 = load i32, ptr %5, align 4, !tbaa !40
  %15 = load i32, ptr %7, align 4, !tbaa !40
  %16 = icmp sgt i32 %14, %15
  br i1 %16, label %17, label %19

17:                                               ; preds = %13
  %18 = load i32, ptr %7, align 4, !tbaa !40
  store i32 %18, ptr %4, align 4
  br label %21

19:                                               ; preds = %13
  %20 = load i32, ptr %5, align 4, !tbaa !40
  store i32 %20, ptr %4, align 4
  br label %21

21:                                               ; preds = %19, %17, %11
  %22 = load i32, ptr %4, align 4
  ret i32 %22
}

; Function Attrs: nounwind uwtable
define internal zeroext i8 @half3(i32 noundef %0, i32 noundef %1, i32 noundef %2) #1 {
  %4 = alloca i32, align 4
  %5 = alloca i32, align 4
  %6 = alloca i32, align 4
  store i32 %0, ptr %4, align 4, !tbaa !40
  store i32 %1, ptr %5, align 4, !tbaa !40
  store i32 %2, ptr %6, align 4, !tbaa !40
  %7 = load i32, ptr %4, align 4, !tbaa !40
  %8 = load i32, ptr %5, align 4, !tbaa !40
  %9 = add nsw i32 %7, %8
  %10 = load i32, ptr %5, align 4, !tbaa !40
  %11 = add nsw i32 %9, %10
  %12 = load i32, ptr %6, align 4, !tbaa !40
  %13 = add nsw i32 %11, %12
  %14 = mul nsw i32 %13, 2
  %15 = sdiv i32 %14, 4
  %16 = add nsw i32 %15, 1
  %17 = sdiv i32 %16, 2
  %18 = trunc i32 %17 to i8
  ret i8 %18
}

; Function Attrs: nounwind uwtable
define internal zeroext i8 @pget(ptr noundef byval(%struct.BlockXY) align 8 %0) #1 {
  %2 = alloca %struct.BlockXY, align 8
  %3 = alloca i32, align 4
  %4 = alloca i32, align 4
  call void @llvm.lifetime.start.p0(i64 48, ptr %2) #11
  call void @llvm.memcpy.p0.p0.i64(ptr align 8 %2, ptr align 8 %0, i64 48, i1 false), !tbaa.struct !129
  call void @llvm.lifetime.start.p0(i64 4, ptr %3) #11
  call void @llvm.lifetime.start.p0(i64 4, ptr %4) #11
  %5 = getelementptr inbounds nuw %struct.BlockXY, ptr %0, i32 0, i32 4
  %6 = load i32, ptr %5, align 8, !tbaa !123
  %7 = icmp eq i32 %6, -1
  br i1 %7, label %8, label %20

8:                                                ; preds = %1
  %9 = getelementptr inbounds nuw %struct.BlockXY, ptr %0, i32 0, i32 5
  %10 = load i32, ptr %9, align 4, !tbaa !122
  %11 = getelementptr inbounds nuw %struct.BlockXY, ptr %0, i32 0, i32 6
  %12 = load i32, ptr %11, align 8, !tbaa !114
  %13 = icmp sge i32 %10, %12
  br i1 %13, label %14, label %20

14:                                               ; preds = %8
  %15 = getelementptr inbounds nuw %struct.BlockXY, ptr %2, i32 0, i32 4
  store i32 -1, ptr %15, align 8, !tbaa !123
  %16 = getelementptr inbounds nuw %struct.BlockXY, ptr %0, i32 0, i32 6
  %17 = load i32, ptr %16, align 8, !tbaa !114
  %18 = sub nsw i32 %17, 1
  %19 = getelementptr inbounds nuw %struct.BlockXY, ptr %2, i32 0, i32 5
  store i32 %18, ptr %19, align 4, !tbaa !122
  br label %60

20:                                               ; preds = %8, %1
  %21 = getelementptr inbounds nuw %struct.BlockXY, ptr %0, i32 0, i32 4
  %22 = load i32, ptr %21, align 8, !tbaa !123
  %23 = icmp sge i32 %22, -1
  br i1 %23, label %24, label %35

24:                                               ; preds = %20
  %25 = getelementptr inbounds nuw %struct.BlockXY, ptr %0, i32 0, i32 5
  %26 = load i32, ptr %25, align 4, !tbaa !122
  %27 = icmp sge i32 %26, -1
  br i1 %27, label %28, label %35

28:                                               ; preds = %24
  %29 = getelementptr inbounds nuw %struct.BlockXY, ptr %0, i32 0, i32 4
  %30 = load i32, ptr %29, align 8, !tbaa !123
  %31 = getelementptr inbounds nuw %struct.BlockXY, ptr %2, i32 0, i32 4
  store i32 %30, ptr %31, align 8, !tbaa !123
  %32 = getelementptr inbounds nuw %struct.BlockXY, ptr %0, i32 0, i32 5
  %33 = load i32, ptr %32, align 4, !tbaa !122
  %34 = getelementptr inbounds nuw %struct.BlockXY, ptr %2, i32 0, i32 5
  store i32 %33, ptr %34, align 4, !tbaa !122
  br label %59

35:                                               ; preds = %24, %20
  %36 = getelementptr inbounds nuw %struct.BlockXY, ptr %0, i32 0, i32 4
  %37 = load i32, ptr %36, align 8, !tbaa !123
  %38 = icmp eq i32 %37, -1
  br i1 %38, label %39, label %46

39:                                               ; preds = %35
  %40 = getelementptr inbounds nuw %struct.BlockXY, ptr %0, i32 0, i32 5
  %41 = load i32, ptr %40, align 4, !tbaa !122
  %42 = icmp eq i32 %41, -2
  br i1 %42, label %43, label %46

43:                                               ; preds = %39
  %44 = getelementptr inbounds nuw %struct.BlockXY, ptr %2, i32 0, i32 4
  store i32 0, ptr %44, align 8, !tbaa !123
  %45 = getelementptr inbounds nuw %struct.BlockXY, ptr %2, i32 0, i32 5
  store i32 -1, ptr %45, align 4, !tbaa !122
  br label %58

46:                                               ; preds = %39, %35
  %47 = getelementptr inbounds nuw %struct.BlockXY, ptr %0, i32 0, i32 4
  %48 = load i32, ptr %47, align 8, !tbaa !123
  %49 = icmp eq i32 %48, -2
  br i1 %49, label %50, label %57

50:                                               ; preds = %46
  %51 = getelementptr inbounds nuw %struct.BlockXY, ptr %0, i32 0, i32 5
  %52 = load i32, ptr %51, align 4, !tbaa !122
  %53 = icmp eq i32 %52, -1
  br i1 %53, label %54, label %57

54:                                               ; preds = %50
  %55 = getelementptr inbounds nuw %struct.BlockXY, ptr %2, i32 0, i32 4
  store i32 -1, ptr %55, align 8, !tbaa !123
  %56 = getelementptr inbounds nuw %struct.BlockXY, ptr %2, i32 0, i32 5
  store i32 0, ptr %56, align 4, !tbaa !122
  br label %57

57:                                               ; preds = %54, %50, %46
  br label %58

58:                                               ; preds = %57, %43
  br label %59

59:                                               ; preds = %58, %28
  br label %60

60:                                               ; preds = %59, %14
  %61 = getelementptr inbounds nuw %struct.BlockXY, ptr %2, i32 0, i32 3
  %62 = load i32, ptr %61, align 4, !tbaa !120
  %63 = getelementptr inbounds nuw %struct.BlockXY, ptr %2, i32 0, i32 5
  %64 = load i32, ptr %63, align 4, !tbaa !122
  %65 = add nsw i32 %62, %64
  %66 = getelementptr inbounds nuw %struct.BlockXY, ptr %2, i32 0, i32 1
  %67 = load i32, ptr %66, align 4, !tbaa !119
  %68 = sub nsw i32 %67, 1
  %69 = call i32 @av_clip_c(i32 noundef %65, i32 noundef 0, i32 noundef %68) #12
  store i32 %69, ptr %4, align 4, !tbaa !40
  %70 = getelementptr inbounds nuw %struct.BlockXY, ptr %2, i32 0, i32 2
  %71 = load i32, ptr %70, align 8, !tbaa !121
  %72 = getelementptr inbounds nuw %struct.BlockXY, ptr %2, i32 0, i32 4
  %73 = load i32, ptr %72, align 8, !tbaa !123
  %74 = add nsw i32 %71, %73
  %75 = getelementptr inbounds nuw %struct.BlockXY, ptr %2, i32 0, i32 0
  %76 = load i32, ptr %75, align 8, !tbaa !118
  %77 = sub nsw i32 %76, 1
  %78 = call i32 @av_clip_c(i32 noundef %74, i32 noundef 0, i32 noundef %77) #12
  store i32 %78, ptr %3, align 4, !tbaa !40
  %79 = getelementptr inbounds nuw %struct.BlockXY, ptr %2, i32 0, i32 7
  %80 = load ptr, ptr %79, align 8, !tbaa !116
  %81 = load i32, ptr %4, align 4, !tbaa !40
  %82 = getelementptr inbounds nuw %struct.BlockXY, ptr %2, i32 0, i32 8
  %83 = load i32, ptr %82, align 8, !tbaa !117
  %84 = mul nsw i32 %81, %83
  %85 = load i32, ptr %3, align 4, !tbaa !40
  %86 = add nsw i32 %84, %85
  %87 = sext i32 %86 to i64
  %88 = getelementptr inbounds i8, ptr %80, i64 %87
  %89 = load i8, ptr %88, align 1, !tbaa !73
  call void @llvm.lifetime.end.p0(i64 4, ptr %4) #11
  call void @llvm.lifetime.end.p0(i64 4, ptr %3) #11
  call void @llvm.lifetime.end.p0(i64 48, ptr %2) #11
  ret i8 %89
}

; Function Attrs: nounwind uwtable
define internal zeroext i8 @half_vert(ptr noundef byval(%struct.BlockXY) align 8 %0) #1 {
  %2 = alloca %struct.BlockXY, align 8
  %3 = alloca %struct.BlockXY, align 8
  %4 = alloca %struct.BlockXY, align 8
  call void @llvm.lifetime.start.p0(i64 48, ptr %2) #11
  call void @llvm.memcpy.p0.p0.i64(ptr align 8 %2, ptr align 8 %0, i64 48, i1 false), !tbaa.struct !129
  call void @llvm.lifetime.start.p0(i64 48, ptr %3) #11
  call void @llvm.memcpy.p0.p0.i64(ptr align 8 %3, ptr align 8 %0, i64 48, i1 false), !tbaa.struct !129
  call void @llvm.lifetime.start.p0(i64 48, ptr %4) #11
  call void @llvm.memcpy.p0.p0.i64(ptr align 8 %4, ptr align 8 %0, i64 48, i1 false), !tbaa.struct !129
  %5 = getelementptr inbounds nuw %struct.BlockXY, ptr %2, i32 0, i32 5
  %6 = load i32, ptr %5, align 4, !tbaa !122
  %7 = sub nsw i32 %6, 1
  store i32 %7, ptr %5, align 4, !tbaa !122
  %8 = getelementptr inbounds nuw %struct.BlockXY, ptr %4, i32 0, i32 5
  %9 = load i32, ptr %8, align 4, !tbaa !122
  %10 = add nsw i32 %9, 1
  store i32 %10, ptr %8, align 4, !tbaa !122
  %11 = call zeroext i8 @pget(ptr noundef byval(%struct.BlockXY) align 8 %2)
  %12 = zext i8 %11 to i32
  %13 = call zeroext i8 @pget(ptr noundef byval(%struct.BlockXY) align 8 %3)
  %14 = zext i8 %13 to i32
  %15 = call zeroext i8 @pget(ptr noundef byval(%struct.BlockXY) align 8 %4)
  %16 = zext i8 %15 to i32
  %17 = call zeroext i8 @half3(i32 noundef %12, i32 noundef %14, i32 noundef %16)
  call void @llvm.lifetime.end.p0(i64 48, ptr %4) #11
  call void @llvm.lifetime.end.p0(i64 48, ptr %3) #11
  call void @llvm.lifetime.end.p0(i64 48, ptr %2) #11
  ret i8 %17
}