; Function Attrs: mustprogress nofree norecurse nosync nounwind willreturn memory(read, inaccessiblemem: none) uwtable
define internal fastcc zeroext i8 @half_vert(ptr noundef readonly byval(%struct.BlockXY) align 8 captures(none) %0) unnamed_addr #7 {
  %.sroa.069.0.copyload = load i32, ptr %0, align 8, !tbaa !61
  %.sroa.470.0..sroa_idx = getelementptr inbounds nuw i8, ptr %0, i64 4
  %.sroa.470.0.copyload = load i32, ptr %.sroa.470.0..sroa_idx, align 4, !tbaa !61
  %.sroa.571.0..sroa_idx = getelementptr inbounds nuw i8, ptr %0, i64 8
  %.sroa.571.0.copyload = load i32, ptr %.sroa.571.0..sroa_idx, align 8, !tbaa !61
  %.sroa.672.0..sroa_idx = getelementptr inbounds nuw i8, ptr %0, i64 12
  %.sroa.672.0.copyload = load i32, ptr %.sroa.672.0..sroa_idx, align 4, !tbaa !61
  %.sroa.773.0..sroa_idx = getelementptr inbounds nuw i8, ptr %0, i64 16
  %.sroa.773.0.copyload = load i32, ptr %.sroa.773.0..sroa_idx, align 8, !tbaa !61
  %.sroa.874.0..sroa_idx = getelementptr inbounds nuw i8, ptr %0, i64 20
  %.sroa.874.0.copyload = load i32, ptr %.sroa.874.0..sroa_idx, align 4, !tbaa !61
  %.sroa.1175.0..sroa_idx = getelementptr inbounds nuw i8, ptr %0, i64 24
  %.sroa.1175.0.copyload = load i32, ptr %.sroa.1175.0..sroa_idx, align 8, !tbaa !61
  %.sroa.1277.0..sroa_idx = getelementptr inbounds nuw i8, ptr %0, i64 32
  %.sroa.1277.0.copyload = load ptr, ptr %.sroa.1277.0..sroa_idx, align 8, !tbaa !84
  %.sroa.1378.0..sroa_idx = getelementptr inbounds nuw i8, ptr %0, i64 40
  %.sroa.1378.0.copyload = load i32, ptr %.sroa.1378.0..sroa_idx, align 8, !tbaa !61
  %2 = add nsw i32 %.sroa.874.0.copyload, -1
  %3 = add nsw i32 %.sroa.874.0.copyload, 1
  %4 = icmp eq i32 %.sroa.773.0.copyload, -1
  %.not.i = icmp sgt i32 %.sroa.874.0.copyload, %.sroa.1175.0.copyload
  %or.cond.not = select i1 %4, i1 %.not.i, i1 false
  br i1 %or.cond.not, label %5, label %7

5:                                                ; preds = %1
  %6 = add nsw i32 %.sroa.1175.0.copyload, -1
  br label %pget.exit

7:                                                ; preds = %1
  %8 = icmp sgt i32 %.sroa.773.0.copyload, -2
  %9 = icmp sgt i32 %.sroa.874.0.copyload, -1
  %or.cond.i = select i1 %8, i1 %9, i1 false
  br i1 %or.cond.i, label %pget.exit, label %10

10:                                               ; preds = %7
  %11 = icmp eq i32 %2, -2
  %or.cond5.i = select i1 %4, i1 %11, i1 false
  br i1 %or.cond5.i, label %pget.exit, label %12

12:                                               ; preds = %10
  %13 = icmp eq i32 %.sroa.773.0.copyload, -2
  %14 = icmp eq i32 %.sroa.874.0.copyload, 0
  %or.cond8.i = select i1 %13, i1 %14, i1 false
  %spec.select.i = select i1 %or.cond8.i, i32 -1, i32 %.sroa.773.0.copyload
  %spec.select13.i = select i1 %or.cond8.i, i32 0, i32 %2
  br label %pget.exit

pget.exit:                                        ; preds = %5, %7, %10, %12
  %.sroa.7.0.i = phi i32 [ -1, %5 ], [ %.sroa.773.0.copyload, %7 ], [ 0, %10 ], [ %spec.select.i, %12 ]
  %.sroa.12.0.i = phi i32 [ %6, %5 ], [ %2, %7 ], [ -1, %10 ], [ %spec.select13.i, %12 ]
  %15 = add nsw i32 %.sroa.12.0.i, %.sroa.672.0.copyload
  %16 = add nsw i32 %.sroa.470.0.copyload, -1
  %17 = icmp slt i32 %15, 0
  %..i14.i = tail call i32 @llvm.smin.i32(i32 %15, i32 %16)
  %.0.i15.i = select i1 %17, i32 0, i32 %..i14.i
  %18 = add nsw i32 %.sroa.7.0.i, %.sroa.571.0.copyload
  %19 = add nsw i32 %.sroa.069.0.copyload, -1
  %20 = icmp slt i32 %18, 0
  %..i.i = tail call i32 @llvm.smin.i32(i32 %18, i32 %19)
  %.0.i.i = select i1 %20, i32 0, i32 %..i.i
  %21 = mul nsw i32 %.0.i15.i, %.sroa.1378.0.copyload
  %22 = add nsw i32 %21, %.0.i.i
  %23 = sext i32 %22 to i64
  %24 = getelementptr inbounds i8, ptr %.sroa.1277.0.copyload, i64 %23
  %25 = load i8, ptr %24, align 1, !tbaa !51
  %.not.i28 = icmp sge i32 %.sroa.874.0.copyload, %.sroa.1175.0.copyload
  %or.cond81.not = select i1 %4, i1 %.not.i28, i1 false
  br i1 %or.cond81.not, label %26, label %28

26:                                               ; preds = %pget.exit
  %27 = add nsw i32 %.sroa.1175.0.copyload, -1
  br label %pget.exit29

28:                                               ; preds = %pget.exit
  %29 = icmp sgt i32 %.sroa.773.0.copyload, -2
  %30 = icmp sgt i32 %.sroa.874.0.copyload, -2
  %or.cond.i16 = select i1 %29, i1 %30, i1 false
  br i1 %or.cond.i16, label %pget.exit29, label %31

31:                                               ; preds = %28
  %32 = icmp eq i32 %.sroa.874.0.copyload, -2
  %or.cond5.i17 = select i1 %4, i1 %32, i1 false
  br i1 %or.cond5.i17, label %pget.exit29, label %33

33:                                               ; preds = %31
  %34 = icmp eq i32 %.sroa.773.0.copyload, -2
  %35 = icmp eq i32 %.sroa.874.0.copyload, -1
  %or.cond8.i18 = select i1 %34, i1 %35, i1 false
  %spec.select.i19 = select i1 %or.cond8.i18, i32 -1, i32 %.sroa.773.0.copyload
  %spec.select13.i20 = select i1 %or.cond8.i18, i32 0, i32 %.sroa.874.0.copyload
  br label %pget.exit29

pget.exit29:                                      ; preds = %26, %28, %31, %33
  %.sroa.7.0.i21 = phi i32 [ -1, %26 ], [ %.sroa.773.0.copyload, %28 ], [ 0, %31 ], [ %spec.select.i19, %33 ]
  %.sroa.12.0.i22 = phi i32 [ %27, %26 ], [ %.sroa.874.0.copyload, %28 ], [ -1, %31 ], [ %spec.select13.i20, %33 ]
  %36 = add nsw i32 %.sroa.12.0.i22, %.sroa.672.0.copyload
  %37 = icmp slt i32 %36, 0
  %..i14.i23 = tail call i32 @llvm.smin.i32(i32 %36, i32 %16)
  %.0.i15.i24 = select i1 %37, i32 0, i32 %..i14.i23
  %38 = add nsw i32 %.sroa.7.0.i21, %.sroa.571.0.copyload
  %39 = icmp slt i32 %38, 0
  %..i.i25 = tail call i32 @llvm.smin.i32(i32 %38, i32 %19)
  %.0.i.i26 = select i1 %39, i32 0, i32 %..i.i25
  %40 = mul nsw i32 %.0.i15.i24, %.sroa.1378.0.copyload
  %41 = add nsw i32 %40, %.0.i.i26
  %42 = sext i32 %41 to i64
  %43 = getelementptr inbounds i8, ptr %.sroa.1277.0.copyload, i64 %42
  %44 = load i8, ptr %43, align 1, !tbaa !51
  %.not.i57 = icmp sge i32 %3, %.sroa.1175.0.copyload
  %or.cond83.not = select i1 %4, i1 %.not.i57, i1 false
  br i1 %or.cond83.not, label %45, label %47

45:                                               ; preds = %pget.exit29
  %46 = add nsw i32 %.sroa.1175.0.copyload, -1
  br label %pget.exit58

47:                                               ; preds = %pget.exit29
  %48 = icmp sgt i32 %.sroa.773.0.copyload, -2
  %49 = icmp sgt i32 %.sroa.874.0.copyload, -3
  %or.cond.i45 = select i1 %48, i1 %49, i1 false
  br i1 %or.cond.i45, label %pget.exit58, label %50

50:                                               ; preds = %47
  %51 = icmp eq i32 %3, -2
  %or.cond5.i46 = select i1 %4, i1 %51, i1 false
  br i1 %or.cond5.i46, label %pget.exit58, label %52

52:                                               ; preds = %50
  %53 = icmp eq i32 %.sroa.773.0.copyload, -2
  %54 = icmp eq i32 %3, -1
  %or.cond8.i47 = select i1 %53, i1 %54, i1 false
  %spec.select.i48 = select i1 %or.cond8.i47, i32 -1, i32 %.sroa.773.0.copyload
  %spec.select13.i49 = select i1 %or.cond8.i47, i32 0, i32 %3
  br label %pget.exit58

pget.exit58:                                      ; preds = %45, %47, %50, %52
  %.sroa.7.0.i50 = phi i32 [ -1, %45 ], [ %.sroa.773.0.copyload, %47 ], [ 0, %50 ], [ %spec.select.i48, %52 ]
  %.sroa.12.0.i51 = phi i32 [ %46, %45 ], [ %3, %47 ], [ -1, %50 ], [ %spec.select13.i49, %52 ]
  %55 = zext i8 %44 to i16
  %56 = zext i8 %25 to i16
  %57 = add nsw i32 %.sroa.12.0.i51, %.sroa.672.0.copyload
  %58 = icmp slt i32 %57, 0
  %..i14.i52 = tail call i32 @llvm.smin.i32(i32 %57, i32 %16)
  %.0.i15.i53 = select i1 %58, i32 0, i32 %..i14.i52
  %59 = add nsw i32 %.sroa.7.0.i50, %.sroa.571.0.copyload
  %60 = icmp slt i32 %59, 0
  %..i.i54 = tail call i32 @llvm.smin.i32(i32 %59, i32 %19)
  %.0.i.i55 = select i1 %60, i32 0, i32 %..i.i54
  %61 = mul nsw i32 %.0.i15.i53, %.sroa.1378.0.copyload
  %62 = add nsw i32 %61, %.0.i.i55
  %63 = sext i32 %62 to i64
  %64 = getelementptr inbounds i8, ptr %.sroa.1277.0.copyload, i64 %63
  %65 = load i8, ptr %64, align 1, !tbaa !51
  %66 = zext i8 %65 to i16
  %reass.add.i = shl nuw nsw i16 %55, 1
  %67 = add nuw nsw i16 %reass.add.i, %56
  %68 = add nuw nsw i16 %67, %66
  %69 = lshr i16 %68, 1
  %70 = add nuw nsw i16 %69, 1
  %71 = lshr i16 %70, 1
  %72 = trunc nuw i16 %71 to i8
  ret i8 %72
}